target datalayout = "e-m:e-p270:32:32-p271:32:32-p272:64:64-i64:64-i128:128-f80:128-n8:16:32:64-S128"
target triple = "x86_64-pc-linux-gnu"

%struct.Cbs2_Par_t_ = type { i32, i32, i32, i32, i32, i32, i32, i32, i32, i32, i32, i32 }
%struct.Cbs2_Man_t_ = type { %struct.Cbs2_Par_t_, ptr, %struct.Cbs2_Que_t_, %struct.Cbs2_Que_t_, %struct.Cbs2_Que_t_, ptr, ptr, %struct.Vec_Str_t_, %struct.Vec_Str_t_, %struct.Vec_Int_t_, %struct.Vec_Int_t_, %struct.Vec_Int_t_, %struct.Vec_Int_t_, %struct.Vec_Int_t_, %struct.Vec_Int_t_, %struct.Vec_Int_t_, %struct.Vec_Int_t_, i32, i32, i32, i32, i32, i32, i32, i64, i64, i64, i64, i64, [3 x i32], [2 x i32], i32 }
%struct.Cbs2_Que_t_ = type { i32, i32, i32, ptr }
%struct.Vec_Str_t_ = type { i32, i32, ptr }
%struct.Vec_Int_t_ = type { i32, i32, ptr }

; Function Attrs: inlinehint nounwind uwtable
define internal void @Vec_StrWriteEntry(ptr noundef %0, i32 noundef %1, i8 noundef signext %2) #5 {
  %4 = alloca ptr, align 8
  %5 = alloca i32, align 4
  %6 = alloca i8, align 1
  store ptr %0, ptr %4, align 8, !tbaa !46
  store i32 %1, ptr %5, align 4, !tbaa !19
  store i8 %2, ptr %6, align 1, !tbaa !48
  %7 = load i8, ptr %6, align 1, !tbaa !48
  %8 = load ptr, ptr %4, align 8, !tbaa !46
  %9 = getelementptr inbounds nuw %struct.Vec_Str_t_, ptr %8, i32 0, i32 2
  %10 = load ptr, ptr %9, align 8, !tbaa !50
  %11 = load i32, ptr %5, align 4, !tbaa !19
  %12 = sext i32 %11 to i64
  %13 = getelementptr inbounds i8, ptr %10, i64 %12
  store i8 %7, ptr %13, align 1, !tbaa !48
  ret void
}

; Function Attrs: inlinehint nounwind uwtable
define internal void @Vec_IntWriteEntry(ptr noundef %0, i32 noundef %1, i32 noundef %2) #5 {
  %4 = alloca ptr, align 8
  %5 = alloca i32, align 4
  %6 = alloca i32, align 4
  store ptr %0, ptr %4, align 8, !tbaa !42
  store i32 %1, ptr %5, align 4, !tbaa !19
  store i32 %2, ptr %6, align 4, !tbaa !19
  %7 = load i32, ptr %6, align 4, !tbaa !19
  %8 = load ptr, ptr %4, align 8, !tbaa !42
  %9 = getelementptr inbounds nuw %struct.Vec_Int_t_, ptr %8, i32 0, i32 2
  %10 = load ptr, ptr %9, align 8, !tbaa !45
  %11 = load i32, ptr %5, align 4, !tbaa !19
  %12 = sext i32 %11 to i64
  %13 = getelementptr inbounds i32, ptr %10, i64 %12
  store i32 %7, ptr %13, align 4, !tbaa !19
  ret void
}

; Function Attrs: inlinehint nounwind uwtable
define internal void @Cbs2_QuePush(ptr noundef %0, i32 noundef %1) #5 {
  %3 = alloca ptr, align 8
  %4 = alloca i32, align 4
  store ptr %0, ptr %3, align 8, !tbaa !88
  store i32 %1, ptr %4, align 4, !tbaa !19
  %5 = load ptr, ptr %3, align 8, !tbaa !88
  %6 = getelementptr inbounds nuw %struct.Cbs2_Que_t_, ptr %5, i32 0, i32 1
  %7 = load i32, ptr %6, align 4, !tbaa !90
  %8 = load ptr, ptr %3, align 8, !tbaa !88
  %9 = getelementptr inbounds nuw %struct.Cbs2_Que_t_, ptr %8, i32 0, i32 2
  %10 = load i32, ptr %9, align 8, !tbaa !91
  %11 = icmp eq i32 %7, %10
  br i1 %11, label %12, label %42

12:                                               ; preds = %2
  %13 = load ptr, ptr %3, align 8, !tbaa !88
  %14 = getelementptr inbounds nuw %struct.Cbs2_Que_t_, ptr %13, i32 0, i32 2
  %15 = load i32, ptr %14, align 8, !tbaa !91
  %16 = mul nsw i32 %15, 2
  store i32 %16, ptr %14, align 8, !tbaa !91
  %17 = load ptr, ptr %3, align 8, !tbaa !88
  %18 = getelementptr inbounds nuw %struct.Cbs2_Que_t_, ptr %17, i32 0, i32 3
  %19 = load ptr, ptr %18, align 8, !tbaa !92
  %20 = icmp ne ptr %19, null
  br i1 %20, label %21, label %31

21:                                               ; preds = %12
  %22 = load ptr, ptr %3, align 8, !tbaa !88
  %23 = getelementptr inbounds nuw %struct.Cbs2_Que_t_, ptr %22, i32 0, i32 3
  %24 = load ptr, ptr %23, align 8, !tbaa !92
  %25 = load ptr, ptr %3, align 8, !tbaa !88
  %26 = getelementptr inbounds nuw %struct.Cbs2_Que_t_, ptr %25, i32 0, i32 2
  %27 = load i32, ptr %26, align 8, !tbaa !91
  %28 = sext i32 %27 to i64
  %29 = mul i64 4, %28
  %30 = call ptr @realloc(ptr noundef %24, i64 noundef %29) #14
  br label %38

31:                                               ; preds = %12
  %32 = load ptr, ptr %3, align 8, !tbaa !88
  %33 = getelementptr inbounds nuw %struct.Cbs2_Que_t_, ptr %32, i32 0, i32 2
  %34 = load i32, ptr %33, align 8, !tbaa !91
  %35 = sext i32 %34 to i64
  %36 = mul i64 4, %35
  %37 = call noalias ptr @malloc(i64 noundef %36) #13
  br label %38

38:                                               ; preds = %31, %21
  %39 = phi ptr [ %30, %21 ], [ %37, %31 ]
  %40 = load ptr, ptr %3, align 8, !tbaa !88
  %41 = getelementptr inbounds nuw %struct.Cbs2_Que_t_, ptr %40, i32 0, i32 3
  store ptr %39, ptr %41, align 8, !tbaa !92
  br label %42

42:                                               ; preds = %38, %2
  %43 = load i32, ptr %4, align 4, !tbaa !19
  %44 = load ptr, ptr %3, align 8, !tbaa !88
  %45 = getelementptr inbounds nuw %struct.Cbs2_Que_t_, ptr %44, i32 0, i32 3
  %46 = load ptr, ptr %45, align 8, !tbaa !92
  %47 = load ptr, ptr %3, align 8, !tbaa !88
  %48 = getelementptr inbounds nuw %struct.Cbs2_Que_t_, ptr %47, i32 0, i32 1
  %49 = load i32, ptr %48, align 4, !tbaa !90
  %50 = add nsw i32 %49, 1
  store i32 %50, ptr %48, align 4, !tbaa !90
  %51 = sext i32 %49 to i64
  %52 = getelementptr inbounds i32, ptr %46, i64 %51
  store i32 %43, ptr %52, align 4, !tbaa !19
  ret void
}

; Function Attrs: inlinehint nounwind uwtable
define internal void @Cbs2_VarSetValue(ptr noundef %0, i32 noundef %1, i32 noundef %2) #5 {
  %4 = alloca ptr, align 8
  %5 = alloca i32, align 4
  %6 = alloca i32, align 4
  store ptr %0, ptr %4, align 8, !tbaa !17
  store i32 %1, ptr %5, align 4, !tbaa !19
  store i32 %2, ptr %6, align 4, !tbaa !19
  %7 = load ptr, ptr %4, align 8, !tbaa !17
  %8 = getelementptr inbounds nuw %struct.Cbs2_Man_t_, ptr %7, i32 0, i32 7
  %9 = load i32, ptr %5, align 4, !tbaa !19
  %10 = load i32, ptr %6, align 4, !tbaa !19
  %11 = trunc i32 %10 to i8
  call void @Vec_StrWriteEntry(ptr noundef %8, i32 noundef %9, i8 noundef signext %11)
  ret void
}

; Function Attrs: inlinehint nounwind uwtable
define internal i32 @Abc_LitIsCompl(i32 noundef %0) #5 {
  %2 = alloca i32, align 4
  store i32 %0, ptr %2, align 4, !tbaa !19
  %3 = load i32, ptr %2, align 4, !tbaa !19
  %4 = and i32 %3, 1
  ret i32 %4
}

; Function Attrs: inlinehint nounwind uwtable
define internal i32 @Abc_Lit2Var(i32 noundef %0) #5 {
  %2 = alloca i32, align 4
  store i32 %0, ptr %2, align 4, !tbaa !19
  %3 = load i32, ptr %2, align 4, !tbaa !19
  %4 = ashr i32 %3, 1
  ret i32 %4
}

; Function Attrs: inlinehint nounwind uwtable
define internal void @Cbs2_ManAssign(ptr noundef %0, i32 noundef %1, i32 noundef %2, i32 noundef %3, i32 noundef %4) #5 {
  %6 = alloca ptr, align 8
  %7 = alloca i32, align 4
  %8 = alloca i32, align 4
  %9 = alloca i32, align 4
  %10 = alloca i32, align 4
  %11 = alloca i32, align 4
  store ptr %0, ptr %6, align 8, !tbaa !17
  store i32 %1, ptr %7, align 4, !tbaa !19
  store i32 %2, ptr %8, align 4, !tbaa !19
  store i32 %3, ptr %9, align 4, !tbaa !19
  store i32 %4, ptr %10, align 4, !tbaa !19
  call void @llvm.lifetime.start.p0(i64 4, ptr %11) #11
  %12 = load i32, ptr %7, align 4, !tbaa !19
  %13 = call i32 @Abc_Lit2Var(i32 noundef %12)
  store i32 %13, ptr %11, align 4, !tbaa !19
  %14 = load ptr, ptr %6, align 8, !tbaa !17
  %15 = load i32, ptr %11, align 4, !tbaa !19
  %16 = load i32, ptr %7, align 4, !tbaa !19
  %17 = call i32 @Abc_LitIsCompl(i32 noundef %16)
  %18 = icmp ne i32 %17, 0
  %19 = xor i1 %18, true
  %20 = zext i1 %19 to i32
  call void @Cbs2_VarSetValue(ptr noundef %14, i32 noundef %15, i32 noundef %20)
  %21 = load ptr, ptr %6, align 8, !tbaa !17
  %22 = getelementptr inbounds nuw %struct.Cbs2_Man_t_, ptr %21, i32 0, i32 2
  %23 = load i32, ptr %7, align 4, !tbaa !19
  call void @Cbs2_QuePush(ptr noundef %22, i32 noundef %23)
  %24 = load ptr, ptr %6, align 8, !tbaa !17
  %25 = getelementptr inbounds nuw %struct.Cbs2_Man_t_, ptr %24, i32 0, i32 9
  %26 = load i32, ptr %11, align 4, !tbaa !19
  %27 = mul nsw i32 3, %26
  %28 = load i32, ptr %8, align 4, !tbaa !19
  call void @Vec_IntWriteEntry(ptr noundef %25, i32 noundef %27, i32 noundef %28)
  %29 = load ptr, ptr %6, align 8, !tbaa !17
  %30 = getelementptr inbounds nuw %struct.Cbs2_Man_t_, ptr %29, i32 0, i32 9
  %31 = load i32, ptr %11, align 4, !tbaa !19
  %32 = mul nsw i32 3, %31
  %33 = add nsw i32 %32, 1
  %34 = load i32, ptr %9, align 4, !tbaa !19
  call void @Vec_IntWriteEntry(ptr noundef %30, i32 noundef %33, i32 noundef %34)
  %35 = load ptr, ptr %6, align 8, !tbaa !17
  %36 = getelementptr inbounds nuw %struct.Cbs2_Man_t_, ptr %35, i32 0, i32 9
  %37 = load i32, ptr %11, align 4, !tbaa !19
  %38 = mul nsw i32 3, %37
  %39 = add nsw i32 %38, 2
  %40 = load i32, ptr %10, align 4, !tbaa !19
  call void @Vec_IntWriteEntry(ptr noundef %36, i32 noundef %39, i32 noundef %40)
  call void @llvm.lifetime.end.p0(i64 4, ptr %11) #11
  ret void
}